Certificate:
    Data:
        Version: 3 (0x2)
        Serial Number: 1 (0x1)
        Signature Algorithm: sha1WithRSAEncryption
        Issuer: C=VN, ST=Ho Chi Minh, L=HCMC, O=NetNam, OU=NetNamBranch, CN=NetNamJSC/name=NetNam/emailAddress=noc-sg@netnam.vn
        Validity
            Not Before: Jan 20 00:49:01 2015 GMT
            Not After : Jan 17 00:49:01 2025 GMT
        Subject: C=VN, ST=Ho Chi Minh, L=HCMC, O=NetNam, OU=NetNamBranch, CN=vpn/name=NetNam/emailAddress=noc-sg@netnam.vn
        Subject Public Key Info:
            Public Key Algorithm: rsaEncryption
                Public-Key: (1024 bit)
                Modulus:
                    00:d7:bc:62:ba:4d:43:19:1d:c3:0d:a9:95:89:ab:
                    d2:27:5f:bd:0a:eb:9f:a7:56:9c:10:b7:52:83:47:
                    33:92:20:b0:67:d6:af:85:81:46:d9:71:24:cb:c6:
                    03:d8:8e:42:ec:14:f3:8d:e0:a4:ea:b6:de:c2:42:
                    17:23:8e:fb:ec:45:5e:3e:89:cb:2f:d1:5f:71:71:
                    bf:31:1d:d0:f0:9d:31:2e:5a:97:ff:7a:8f:d8:d9:
                    c6:ca:c1:d1:28:8b:b6:53:ed:02:02:71:cf:95:f8:
                    23:99:5c:cf:90:dc:27:16:c5:97:7e:48:f7:c2:92:
                    89:c4:10:73:96:18:50:66:8f
                Exponent: 65537 (0x10001)
        X509v3 extensions:
            X509v3 Basic Constraints: 
                CA:FALSE
            Netscape Cert Type: 
                SSL Server
            Netscape Comment: 
                Easy-RSA Generated Server Certificate
            X509v3 Subject Key Identifier: 
                83:0E:D7:D9:3B:37:17:1F:01:23:DA:29:69:24:B8:33:A4:77:3A:F7
            X509v3 Authority Key Identifier: 
                keyid:D8:29:7D:C6:5E:E3:24:DF:0E:6F:76:23:D9:27:0A:1F:97:27:DB:EC
                DirName:/C=VN/ST=Ho Chi Minh/L=HCMC/O=NetNam/OU=NetNamBranch/CN=NetNamJSC/name=NetNam/emailAddress=noc-sg@netnam.vn
                serial:CD:15:49:D0:CB:9C:EB:F7

            X509v3 Extended Key Usage: 
                TLS Web Server Authentication
            X509v3 Key Usage: 
                Digital Signature, Key Encipherment
    Signature Algorithm: sha1WithRSAEncryption
        6d:ce:3b:30:8c:ae:10:44:ac:27:38:1a:b6:bf:a1:9f:b0:b7:
        8f:08:7d:8f:ea:9a:24:2e:25:36:73:3d:f6:05:7b:1b:92:5f:
        eb:78:bc:98:16:33:fb:ce:30:f7:30:b5:3c:28:08:5c:c6:d7:
        81:62:44:c0:b8:2c:15:36:62:59:13:f9:ef:9d:a4:6c:de:70:
        bb:4b:21:88:3f:37:cb:93:84:4e:97:80:43:1e:ee:2e:1e:d3:
        85:1f:3a:fe:01:62:4c:f8:aa:5c:84:a7:e0:20:71:fe:70:cb:
        9f:bb:bf:47:60:bb:fc:13:9b:2c:1d:9d:af:36:43:38:d9:ed:
        f6:63
-----BEGIN CERTIFICATE-----
MIIEJTCCA46gAwIBAgIBATANBgkqhkiG9w0BAQUFADCBoDELMAkGA1UEBhMCVk4x
FDASBgNVBAgTC0hvIENoaSBNaW5oMQ0wCwYDVQQHEwRIQ01DMQ8wDQYDVQQKEwZO
ZXROYW0xFTATBgNVBAsTDE5ldE5hbUJyYW5jaDESMBAGA1UEAxMJTmV0TmFtSlND
MQ8wDQYDVQQpEwZOZXROYW0xHzAdBgkqhkiG9w0BCQEWEG5vYy1zZ0BuZXRuYW0u
dm4wHhcNMTUwMTIwMDA0OTAxWhcNMjUwMTE3MDA0OTAxWjCBmjELMAkGA1UEBhMC
Vk4xFDASBgNVBAgTC0hvIENoaSBNaW5oMQ0wCwYDVQQHEwRIQ01DMQ8wDQYDVQQK
EwZOZXROYW0xFTATBgNVBAsTDE5ldE5hbUJyYW5jaDEMMAoGA1UEAxMDdnBuMQ8w
DQYDVQQpEwZOZXROYW0xHzAdBgkqhkiG9w0BCQEWEG5vYy1zZ0BuZXRuYW0udm4w
gZ8wDQYJKoZIhvcNAQEBBQADgY0AMIGJAoGBANe8YrpNQxkdww2plYmr0idfvQrr
n6dWnBC3UoNHM5IgsGfWr4WBRtlxJMvGA9iOQuwU843gpOq23sJCFyOO++xFXj6J
yy/RX3FxvzEd0PCdMS5al/96j9jZxsrB0SiLtlPtAgJxz5X4I5lcz5DcJxbFl35I
98KSicQQc5YYUGaPAgMBAAGjggFxMIIBbTAJBgNVHRMEAjAAMBEGCWCGSAGG+EIB
AQQEAwIGQDA0BglghkgBhvhCAQ0EJxYlRWFzeS1SU0EgR2VuZXJhdGVkIFNlcnZl
ciBDZXJ0aWZpY2F0ZTAdBgNVHQ4EFgQUgw7X2Ts3Fx8BI9opaSS4M6R3OvcwgdUG
A1UdIwSBzTCByoAU2Cl9xl7jJN8Ob3Yj2ScKH5cn2+yhgaakgaMwgaAxCzAJBgNV
BAYTAlZOMRQwEgYDVQQIEwtIbyBDaGkgTWluaDENMAsGA1UEBxMESENNQzEPMA0G
A1UEChMGTmV0TmFtMRUwEwYDVQQLEwxOZXROYW1CcmFuY2gxEjAQBgNVBAMTCU5l
dE5hbUpTQzEPMA0GA1UEKRMGTmV0TmFtMR8wHQYJKoZIhvcNAQkBFhBub2Mtc2dA
bmV0bmFtLnZuggkAzRVJ0Muc6/cwEwYDVR0lBAwwCgYIKwYBBQUHAwEwCwYDVR0P
BAQDAgWgMA0GCSqGSIb3DQEBBQUAA4GBAG3OOzCMrhBErCc4Gra/oZ+wt48IfY/q
miQuJTZzPfYFexuSX+t4vJgWM/vOMPcwtTwoCFzG14FiRMC4LBU2YlkT+e+dpGze
cLtLIYg/N8uThE6XgEMe7i4e04UfOv4BYkz4qlyEp+Agcf5wy5+7v0dgu/wTmywd
na82QzjZ7fZj
-----END CERTIFICATE-----
